; Function Attrs: nounwind uwtable
define dso_local range(i32 -1, 12) i32 @PyRun_InteractiveOneFlags(ptr noundef %0, ptr noundef %1, ptr noundef %2) local_unnamed_addr #0 {
  %4 = tail call ptr @PyUnicode_DecodeFSDefault(ptr noundef %1) #8
  %5 = icmp eq ptr %4, null
  br i1 %5, label %6, label %9

6:                                                ; preds = %3
  %7 = tail call align 8 ptr @llvm.threadlocal.address.p0(ptr align 8 @_Py_tss_tstate)
  %8 = load ptr, ptr %7, align 8, !tbaa !4
  tail call fastcc void @_PyErr_PrintEx(ptr noundef %8, i32 noundef 1)
  br label %Py_DECREF.exit

9:                                                ; preds = %3
  %10 = tail call fastcc i32 @PyRun_InteractiveOneObjectEx(ptr noundef %0, ptr noundef nonnull %4, ptr noundef %2)
  %11 = icmp eq i32 %10, -1
  br i1 %11, label %12, label %PyRun_InteractiveOneObject.exit

12:                                               ; preds = %9
  %13 = tail call align 8 ptr @llvm.threadlocal.address.p0(ptr align 8 @_Py_tss_tstate)
  %14 = load ptr, ptr %13, align 8, !tbaa !4
  tail call fastcc void @_PyErr_PrintEx(ptr noundef %14, i32 noundef 1)
  tail call fastcc void @flush_io()
  br label %PyRun_InteractiveOneObject.exit

PyRun_InteractiveOneObject.exit:                  ; preds = %9, %12
  %15 = load i32, ptr %4, align 8, !tbaa !9
  %.not.i = icmp sgt i32 %15, -1
  br i1 %.not.i, label %16, label %Py_DECREF.exit

16:                                               ; preds = %PyRun_InteractiveOneObject.exit
  %17 = add nsw i32 %15, -1
  store i32 %17, ptr %4, align 8, !tbaa !9
  %18 = icmp eq i32 %17, 0
  br i1 %18, label %19, label %Py_DECREF.exit

19:                                               ; preds = %16
  tail call void @_Py_Dealloc(ptr noundef nonnull %4) #8
  br label %Py_DECREF.exit

Py_DECREF.exit:                                   ; preds = %19, %16, %PyRun_InteractiveOneObject.exit, %6
  %.0 = phi i32 [ -1, %6 ], [ %10, %PyRun_InteractiveOneObject.exit ], [ %10, %16 ], [ %10, %19 ]
  ret i32 %.0
}